; Function Attrs: mustprogress nofree nounwind willreturn memory(read) uwtable
define dso_local i32 @git_fspathncmp(ptr noundef readonly captures(none) %0, ptr noundef readonly captures(none) %1, i64 noundef %2) local_unnamed_addr #4 {
  %4 = load i32, ptr @ignore_case, align 4, !tbaa !10
  %.not = icmp eq i32 %4, 0
  br i1 %.not, label %7, label %5

5:                                                ; preds = %3
  %6 = tail call i32 @strncasecmp(ptr noundef %0, ptr noundef %1, i64 noundef %2) #28
  br label %9

7:                                                ; preds = %3
  %8 = tail call i32 @strncmp(ptr noundef %0, ptr noundef %1, i64 noundef %2) #28
  br label %9

9:                                                ; preds = %7, %5
  %10 = phi i32 [ %6, %5 ], [ %8, %7 ]
  ret i32 %10
}